; Function Attrs: mustprogress nofree norecurse nosync nounwind memory(read, argmem: readwrite, inaccessiblemem: none) uwtable
define void @_Z24gmx_mtop_count_atomtypesRK10gmx_mtop_tiPi(ptr noundef nonnull readonly align 8 captures(none) dereferenceable(768) %0, i32 noundef %1, ptr noundef captures(none) %2) local_unnamed_addr #0 {
  %4 = getelementptr inbounds nuw i8, ptr %0, i64 8
  %5 = load i32, ptr %4, align 8, !tbaa !4
  %6 = icmp sgt i32 %5, 0
  br i1 %6, label %.lr.ph, label %._crit_edge

._crit_edge:                                      ; preds = %.lr.ph, %3
  %7 = getelementptr inbounds nuw i8, ptr %0, i64 136
  %8 = load ptr, ptr %7, align 8, !tbaa !65
  %9 = getelementptr inbounds nuw i8, ptr %0, i64 144
  %10 = load ptr, ptr %9, align 8, !tbaa !65
  %.not29 = icmp eq ptr %8, %10
  br i1 %.not29, label %._crit_edge33, label %.lr.ph32

.lr.ph32:                                         ; preds = %._crit_edge
  %11 = getelementptr inbounds nuw i8, ptr %0, i64 112
  %12 = load ptr, ptr %11, align 8, !tbaa !66
  %13 = icmp eq i32 %1, 0
  br i1 %13, label %.lr.ph32.split.us, label %.lr.ph32.split

.lr.ph32.split.us:                                ; preds = %.lr.ph32, %._crit_edge28.split.us.us
  %.sroa.021.030.us = phi ptr [ %20, %._crit_edge28.split.us.us ], [ %8, %.lr.ph32 ]
  %14 = load i32, ptr %.sroa.021.030.us, align 8, !tbaa !67
  %15 = sext i32 %14 to i64
  %16 = getelementptr inbounds nuw %struct.gmx_moltype_t, ptr %12, i64 %15
  %17 = getelementptr inbounds nuw i8, ptr %16, i64 8
  %18 = load i32, ptr %17, align 8, !tbaa !74
  %19 = icmp sgt i32 %18, 0
  br i1 %19, label %.lr.ph27.us, label %._crit_edge28.split.us.us

._crit_edge28.split.us.us:                        ; preds = %24, %.lr.ph32.split.us
  %20 = getelementptr inbounds nuw i8, ptr %.sroa.021.030.us, i64 56
  %.not.us = icmp eq ptr %20, %10
  br i1 %.not.us, label %._crit_edge33, label %.lr.ph32.split.us

.lr.ph27.us:                                      ; preds = %.lr.ph32.split.us
  %21 = getelementptr inbounds nuw i8, ptr %16, i64 16
  %22 = getelementptr inbounds nuw i8, ptr %.sroa.021.030.us, i64 4
  %23 = load ptr, ptr %21, align 8, !tbaa !79
  br label %24

24:                                               ; preds = %24, %.lr.ph27.us
  %indvars.iv39 = phi i64 [ %indvars.iv.next40, %24 ], [ 0, %.lr.ph27.us ]
  %25 = getelementptr inbounds nuw %struct.t_atom, ptr %23, i64 %indvars.iv39, i32 4
  %26 = load i16, ptr %25, align 2, !tbaa !80
  %27 = load i32, ptr %22, align 4, !tbaa !82
  %28 = zext i16 %26 to i64
  %29 = getelementptr inbounds nuw i32, ptr %2, i64 %28
  %30 = load i32, ptr %29, align 4, !tbaa !83
  %31 = add nsw i32 %30, %27
  store i32 %31, ptr %29, align 4, !tbaa !83
  %indvars.iv.next40 = add nuw nsw i64 %indvars.iv39, 1
  %32 = load i32, ptr %17, align 8, !tbaa !74
  %33 = sext i32 %32 to i64
  %34 = icmp slt i64 %indvars.iv.next40, %33
  br i1 %34, label %24, label %._crit_edge28.split.us.us, !llvm.loop !84

.lr.ph:                                           ; preds = %3, %.lr.ph
  %indvars.iv = phi i64 [ %indvars.iv.next, %.lr.ph ], [ 0, %3 ]
  %35 = getelementptr inbounds nuw i32, ptr %2, i64 %indvars.iv
  store i32 0, ptr %35, align 4, !tbaa !83
  %indvars.iv.next = add nuw nsw i64 %indvars.iv, 1
  %36 = load i32, ptr %4, align 8, !tbaa !4
  %37 = sext i32 %36 to i64
  %38 = icmp slt i64 %indvars.iv.next, %37
  br i1 %38, label %.lr.ph, label %._crit_edge, !llvm.loop !86

._crit_edge33:                                    ; preds = %._crit_edge28.split, %._crit_edge28.split.us.us, %._crit_edge
  ret void

.lr.ph32.split:                                   ; preds = %.lr.ph32, %._crit_edge28.split
  %.sroa.021.030 = phi ptr [ %48, %._crit_edge28.split ], [ %8, %.lr.ph32 ]
  %39 = load i32, ptr %.sroa.021.030, align 8, !tbaa !67
  %40 = sext i32 %39 to i64
  %41 = getelementptr inbounds nuw %struct.gmx_moltype_t, ptr %12, i64 %40
  %42 = getelementptr inbounds nuw i8, ptr %41, i64 8
  %43 = load i32, ptr %42, align 8, !tbaa !74
  %44 = icmp sgt i32 %43, 0
  br i1 %44, label %.lr.ph27, label %._crit_edge28.split

.lr.ph27:                                         ; preds = %.lr.ph32.split
  %45 = getelementptr inbounds nuw i8, ptr %41, i64 16
  %46 = getelementptr inbounds nuw i8, ptr %.sroa.021.030, i64 4
  %47 = load ptr, ptr %45, align 8, !tbaa !79
  br label %49

._crit_edge28.split:                              ; preds = %49, %.lr.ph32.split
  %48 = getelementptr inbounds nuw i8, ptr %.sroa.021.030, i64 56
  %.not = icmp eq ptr %48, %10
  br i1 %.not, label %._crit_edge33, label %.lr.ph32.split

49:                                               ; preds = %.lr.ph27, %49
  %indvars.iv36 = phi i64 [ 0, %.lr.ph27 ], [ %indvars.iv.next37, %49 ]
  %50 = getelementptr inbounds nuw %struct.t_atom, ptr %47, i64 %indvars.iv36, i32 5
  %51 = load i16, ptr %50, align 2, !tbaa !80
  %52 = load i32, ptr %46, align 4, !tbaa !82
  %53 = zext i16 %51 to i64
  %54 = getelementptr inbounds nuw i32, ptr %2, i64 %53
  %55 = load i32, ptr %54, align 4, !tbaa !83
  %56 = add nsw i32 %55, %52
  store i32 %56, ptr %54, align 4, !tbaa !83
  %indvars.iv.next37 = add nuw nsw i64 %indvars.iv36, 1
  %57 = load i32, ptr %42, align 8, !tbaa !74
  %58 = sext i32 %57 to i64
  %59 = icmp slt i64 %indvars.iv.next37, %58
  br i1 %59, label %49, label %._crit_edge28.split, !llvm.loop !84
}